(dp0
(S'0000010000'
p1
I0
tp2
F19.920066802230817
s(S'0000000010'
p3
I0
tp4
F13.766152078898989
s(S'0000000100'
p5
I1
tp6
F12.486320389882545
s(S'0000001000'
p7
I1
tp8
F17.13552429109788
s(S'0100000000'
p9
I0
tp10
F15.775185865904337
s(S'0000100000'
p11
I2
tp12
F17.809370536592105
s(S'0001000000'
p13
I1
tp14
F17.73275387771328
s(S'0000000000'
p15
I2
tp16
F-14.91632089032303
s(S'0000001000'
p17
I2
tp18
F16.03352947537744
s(S'0000000100'
p19
I0
tp20
F15.483786706220313
s(S'0000001000'
p21
I0
tp22
F19.497108065586396
s(S'0000100000'
p23
I1
tp24
F17.835687114204738
s(S'0001000000'
p25
I0
tp26
F19.73122771506353
s(S'0000010000'
p27
I2
tp28
F17.962752136851016
s(S'0010000000'
p29
I2
tp30
F17.74914200197361
s(S'0000000010'
p31
I2
tp32
F9.338477812860983
s(S'0100000000'
p33
I2
tp34
F17.679255365442675
s(S'0000100000'
p35
I0
tp36
F19.781568039593207
s(S'0000000001'
p37
I1
tp38
F13.065780098677884
s(S'0000000000'
p39
I0
tp40
F-46.739918221784215
s(S'0010000000'
p41
I1
tp42
F17.55645928354776
s(S'0000000100'
p43
I2
tp44
F12.891995227594151
s(S'0000010000'
p45
I1
tp46
F17.940906248104703
s(S'0000000010'
p47
I1
tp48
F12.124694983848924
s(S'0000000001'
p49
I0
tp50
F13.828333907442335
s(S'0001000000'
p51
I2
tp52
F17.747997600288585
s(S'0100000000'
p53
I1
tp54
F17.81141164420437
s(S'0000000000'
p55
I1
tp56
F-3.9880010388458227
s(S'0010000000'
p57
I0
tp58
F19.79190366165486
s(S'0000000001'
p59
I2
tp60
F9.499321625009872
s.